; Function Attrs: mustprogress nofree norecurse nosync nounwind willreturn memory(argmem: readwrite) uwtable
define void @_ZN6icu_7517CollationSettings7setFlagEi18UColAttributeValueiR10UErrorCode(ptr nocapture noundef nonnull align 8 dereferenceable(852) %this, i32 noundef %bit, i32 noundef %value, i32 noundef %defaultOptions, ptr nocapture noundef nonnull align 4 dereferenceable(4) %errorCode) local_unnamed_addr #10 align 2 {
entry:
  %0 = load i32, ptr %errorCode, align 4
  %cmp.i = icmp slt i32 %0, 1
  br i1 %cmp.i, label %if.end, label %sw.epilog

if.end:                                           ; preds = %entry
  switch i32 %value, label %sw.default [
    i32 17, label %sw.bb
    i32 16, label %sw.bb2
    i32 -1, label %sw.bb4
  ]

sw.bb:                                            ; preds = %if.end
  %options = getelementptr inbounds i8, ptr %this, i64 24
  %1 = load i32, ptr %options, align 8
  %or = or i32 %1, %bit
  store i32 %or, ptr %options, align 8
  br label %sw.epilog

sw.bb2:                                           ; preds = %if.end
  %not = xor i32 %bit, -1
  %options3 = getelementptr inbounds i8, ptr %this, i64 24
  %2 = load i32, ptr %options3, align 8
  %and = and i32 %2, %not
  store i32 %and, ptr %options3, align 8
  br label %sw.epilog

sw.bb4:                                           ; preds = %if.end
  %options5 = getelementptr inbounds i8, ptr %this, i64 24
  %3 = load i32, ptr %options5, align 8
  %not6 = xor i32 %bit, -1
  %and7 = and i32 %3, %not6
  %and8 = and i32 %defaultOptions, %bit
  %or9 = or disjoint i32 %and7, %and8
  store i32 %or9, ptr %options5, align 8
  br label %sw.epilog

sw.default:                                       ; preds = %if.end
  store i32 1, ptr %errorCode, align 4
  br label %sw.epilog

sw.epilog:                                        ; preds = %entry, %sw.default, %sw.bb4, %sw.bb2, %sw.bb
  ret void
}